ccopy_reg
_reconstructor
p0
(cgoogle.oauth2.credentials
Credentials
p1
c__builtin__
object
p2
Ntp3
Rp4
(dp5
S'_quota_project_id'
p6
NsS'_token_uri'
p7
Vhttps://oauth2.googleapis.com/token
p8
sS'_client_secret'
p9
Vuyo7yGcZbkWJ-S2BbkzwUmJR
p10
sS'_id_token'
p11
NsS'token'
p12
Vya29.ImC5B9RF2klTRiaySOxai562t6RO04AVOtTwOCw3g9qZwLdNbNrm9UJginP1Lz_JBrIkpT7H0muQxh-E6n1v3vXPCuq8MQWIhyMU58gYyK-_In0Utu3yqD3Pviq-FszLlcw
p13
sS'_refresh_token'
p14
V1//0efE1OO9IMJEHCgYIARAAGA4SNwF-L9IrCUxolyduXxvQaXpjbvop-zdvPETKFVqcdbfcakAxx4B2fZ68NDMjnuuFfZAMoeLXljs
p15
sS'_scopes'
p16
(lp17
S'https://www.googleapis.com/auth/spreadsheets.readonly'
p18
asS'_client_id'
p19
V123863513220-ej96dsg06bj7obljcaj9tok5e7r7au7d.apps.googleusercontent.com
p20
sS'expiry'
p21
cdatetime
datetime
p22
(S'\x07\xe4\x01\t\x07\x01+\x05\x18\xb0'
p23
tp24
Rp25
sb.